target datalayout = "e-m:e-p270:32:32-p271:32:32-p272:64:64-i64:64-i128:128-f80:128-n8:16:32:64-S128"
target triple = "x86_64-unknown-linux-gnu"

%"class.llvh::ErrorOr" = type { %union.anon, i8, [7 x i8] }
%union.anon = type { %"struct.llvh::AlignedCharArrayUnion.10" }
%"struct.llvh::AlignedCharArrayUnion.10" = type { %"struct.llvh::AlignedCharArray.11" }
%"struct.llvh::AlignedCharArray.11" = type { [16 x i8] }
%"class.std::error_code" = type { i32, ptr }
%"struct.llvh::AlignedCharArray" = type { [8 x i8] }

; Function Attrs: mustprogress nounwind uwtable
define linkonce_odr void @_ZNSt10error_codeC2Ev(ptr noundef nonnull align 8 dereferenceable(16) %this) unnamed_addr #0 comdat align 2 {
entry:
  %this.addr = alloca ptr, align 8
  store ptr %this, ptr %this.addr, align 8
  %this1 = load ptr, ptr %this.addr, align 8
  %_M_value = getelementptr inbounds %"class.std::error_code", ptr %this1, i32 0, i32 0
  store i32 0, ptr %_M_value, align 8
  %_M_cat = getelementptr inbounds %"class.std::error_code", ptr %this1, i32 0, i32 1
  %call = call noundef nonnull align 8 dereferenceable(8) ptr @_ZNSt3_V215system_categoryEv() #12
  store ptr %call, ptr %_M_cat, align 8
  ret void
}

; Function Attrs: mustprogress nounwind uwtable
define linkonce_odr hidden noundef ptr @_ZNK4llvh7ErrorOrIPvE15getErrorStorageEv(ptr noundef nonnull align 8 dereferenceable(17) %this) #0 comdat align 2 {
entry:
  %this.addr = alloca ptr, align 8
  store ptr %this, ptr %this.addr, align 8
  %this1 = load ptr, ptr %this.addr, align 8
  %call = call noundef ptr @_ZN4llvh7ErrorOrIPvE15getErrorStorageEv(ptr noundef nonnull align 8 dereferenceable(17) %this1)
  ret ptr %call
}

; Function Attrs: mustprogress nounwind uwtable
define linkonce_odr hidden { i32, ptr } @_ZNK4llvh7ErrorOrIPvE8getErrorEv(ptr noundef nonnull align 8 dereferenceable(17) %this) #0 comdat align 2 {
entry:
  %retval = alloca %"class.std::error_code", align 8
  %this.addr = alloca ptr, align 8
  store ptr %this, ptr %this.addr, align 8
  %this1 = load ptr, ptr %this.addr, align 8
  %HasError = getelementptr inbounds %"class.llvh::ErrorOr", ptr %this1, i32 0, i32 1
  %bf.load = load i8, ptr %HasError, align 8
  %bf.clear = and i8 %bf.load, 1
  %bf.cast = trunc i8 %bf.clear to i1
  br i1 %bf.cast, label %cond.true, label %cond.false

cond.true:                                        ; preds = %entry
  %call = call noundef ptr @_ZNK4llvh7ErrorOrIPvE15getErrorStorageEv(ptr noundef nonnull align 8 dereferenceable(17) %this1)
  call void @llvm.memcpy.p0.p0.i64(ptr align 8 %retval, ptr align 8 %call, i64 16, i1 false)
  br label %cond.end

cond.false:                                       ; preds = %entry
  call void @_ZNSt10error_codeC2Ev(ptr noundef nonnull align 8 dereferenceable(16) %retval) #11
  br label %cond.end

cond.end:                                         ; preds = %cond.false, %cond.true
  %0 = load { i32, ptr }, ptr %retval, align 8
  ret { i32, ptr } %0
}

; Function Attrs: mustprogress nounwind uwtable
define linkonce_odr hidden noundef ptr @_ZN4llvh7ErrorOrIPvE15getErrorStorageEv(ptr noundef nonnull align 8 dereferenceable(17) %this) #0 comdat align 2 {
entry:
  %this.addr = alloca ptr, align 8
  store ptr %this, ptr %this.addr, align 8
  %this1 = load ptr, ptr %this.addr, align 8
  %0 = getelementptr inbounds %"class.llvh::ErrorOr", ptr %this1, i32 0, i32 0
  %buffer = getelementptr inbounds %"struct.llvh::AlignedCharArray.11", ptr %0, i32 0, i32 0
  %arraydecay = getelementptr inbounds [16 x i8], ptr %buffer, i64 0, i64 0
  ret ptr %arraydecay
}

; Function Attrs: mustprogress nounwind uwtable
define linkonce_odr hidden noundef ptr @_ZN4llvh7ErrorOrIPvE10getStorageEv(ptr noundef nonnull align 8 dereferenceable(17) %this) #0 comdat align 2 {
entry:
  %this.addr = alloca ptr, align 8
  store ptr %this, ptr %this.addr, align 8
  %this1 = load ptr, ptr %this.addr, align 8
  %0 = getelementptr inbounds %"class.llvh::ErrorOr", ptr %this1, i32 0, i32 0
  %buffer = getelementptr inbounds %"struct.llvh::AlignedCharArray", ptr %0, i32 0, i32 0
  %arraydecay = getelementptr inbounds [8 x i8], ptr %buffer, i64 0, i64 0
  ret ptr %arraydecay
}

; Function Attrs: mustprogress nounwind uwtable
define linkonce_odr hidden void @_ZN4llvh7ErrorOrIPvE13moveConstructIS1_EEvONS0_IT_EE(ptr noundef nonnull align 8 dereferenceable(17) %this, ptr noundef nonnull align 8 dereferenceable(17) %Other) #0 comdat align 2 {
entry:
  %this.addr = alloca ptr, align 8
  %Other.addr = alloca ptr, align 8
  store ptr %this, ptr %this.addr, align 8
  store ptr %Other, ptr %Other.addr, align 8
  %this1 = load ptr, ptr %this.addr, align 8
  %0 = load ptr, ptr %Other.addr, align 8
  %HasError = getelementptr inbounds %"class.llvh::ErrorOr", ptr %0, i32 0, i32 1
  %bf.load = load i8, ptr %HasError, align 8
  %bf.clear = and i8 %bf.load, 1
  %bf.cast = trunc i8 %bf.clear to i1
  br i1 %bf.cast, label %if.else, label %if.then

if.then:                                          ; preds = %entry
  %HasError2 = getelementptr inbounds %"class.llvh::ErrorOr", ptr %this1, i32 0, i32 1
  %bf.load3 = load i8, ptr %HasError2, align 8
  %bf.clear4 = and i8 %bf.load3, -2
  %bf.set = or i8 %bf.clear4, 0
  store i8 %bf.set, ptr %HasError2, align 8
  %call = call noundef ptr @_ZN4llvh7ErrorOrIPvE10getStorageEv(ptr noundef nonnull align 8 dereferenceable(17) %this1)
  %1 = load ptr, ptr %Other.addr, align 8
  %call5 = call noundef ptr @_ZN4llvh7ErrorOrIPvE10getStorageEv(ptr noundef nonnull align 8 dereferenceable(17) %1)
  %2 = load ptr, ptr %call5, align 8
  store ptr %2, ptr %call, align 8
  br label %if.end

if.else:                                          ; preds = %entry
  %HasError6 = getelementptr inbounds %"class.llvh::ErrorOr", ptr %this1, i32 0, i32 1
  %bf.load7 = load i8, ptr %HasError6, align 8
  %bf.clear8 = and i8 %bf.load7, -2
  %bf.set9 = or i8 %bf.clear8, 1
  store i8 %bf.set9, ptr %HasError6, align 8
  %call10 = call noundef ptr @_ZN4llvh7ErrorOrIPvE15getErrorStorageEv(ptr noundef nonnull align 8 dereferenceable(17) %this1)
  %3 = load ptr, ptr %Other.addr, align 8
  %call11 = call { i32, ptr } @_ZNK4llvh7ErrorOrIPvE8getErrorEv(ptr noundef nonnull align 8 dereferenceable(17) %3)
  %4 = getelementptr inbounds { i32, ptr }, ptr %call10, i32 0, i32 0
  %5 = extractvalue { i32, ptr } %call11, 0
  store i32 %5, ptr %4, align 8
  %6 = getelementptr inbounds { i32, ptr }, ptr %call10, i32 0, i32 1
  %7 = extractvalue { i32, ptr } %call11, 1
  store ptr %7, ptr %6, align 8
  br label %if.end

if.end:                                           ; preds = %if.else, %if.then
  ret void
}

; Function Attrs: mustprogress nounwind uwtable
define linkonce_odr hidden void @_ZN4llvh7ErrorOrIPvED2Ev(ptr noundef nonnull align 8 dereferenceable(17) %this) unnamed_addr #0 comdat align 2 {
entry:
  %this.addr = alloca ptr, align 8
  store ptr %this, ptr %this.addr, align 8
  %this1 = load ptr, ptr %this.addr, align 8
  %HasError = getelementptr inbounds %"class.llvh::ErrorOr", ptr %this1, i32 0, i32 1
  %bf.load = load i8, ptr %HasError, align 8
  %bf.clear = and i8 %bf.load, 1
  %bf.cast = trunc i8 %bf.clear to i1
  br i1 %bf.cast, label %if.end, label %if.then

if.then:                                          ; preds = %entry
  %call = call noundef ptr @_ZN4llvh7ErrorOrIPvE10getStorageEv(ptr noundef nonnull align 8 dereferenceable(17) %this1)
  br label %if.end

if.end:                                           ; preds = %if.then, %entry
  ret void
}

; Function Attrs: mustprogress nounwind uwtable
define linkonce_odr hidden void @_ZN4llvh7ErrorOrIPvEC2IS1_EEOT_PNSt9enable_ifIXsr3std14is_convertibleIS4_S1_EE5valueEvE4typeE(ptr noundef nonnull align 8 dereferenceable(17) %this, ptr noundef nonnull align 8 dereferenceable(8) %Val, ptr noundef %0) unnamed_addr #0 comdat align 2 {
entry:
  %this.addr = alloca ptr, align 8
  %Val.addr = alloca ptr, align 8
  %.addr = alloca ptr, align 8
  store ptr %this, ptr %this.addr, align 8
  store ptr %Val, ptr %Val.addr, align 8
  store ptr %0, ptr %.addr, align 8
  %this1 = load ptr, ptr %this.addr, align 8
  %HasError = getelementptr inbounds %"class.llvh::ErrorOr", ptr %this1, i32 0, i32 1
  %bf.load = load i8, ptr %HasError, align 8
  %bf.clear = and i8 %bf.load, -2
  %bf.set = or i8 %bf.clear, 0
  store i8 %bf.set, ptr %HasError, align 8
  %call = call noundef ptr @_ZN4llvh7ErrorOrIPvE10getStorageEv(ptr noundef nonnull align 8 dereferenceable(17) %this1)
  %1 = load ptr, ptr %Val.addr, align 8
  %2 = load ptr, ptr %1, align 8
  store ptr %2, ptr %call, align 8
  ret void
}

; Function Attrs: mustprogress nounwind uwtable
define linkonce_odr hidden noundef nonnull align 8 dereferenceable(8) ptr @_ZN4llvh7ErrorOrIPvEdeEv(ptr noundef nonnull align 8 dereferenceable(17) %this) #0 comdat align 2 {
entry:
  %this.addr = alloca ptr, align 8
  store ptr %this, ptr %this.addr, align 8
  %this1 = load ptr, ptr %this.addr, align 8
  %call = call noundef ptr @_ZN4llvh7ErrorOrIPvE10getStorageEv(ptr noundef nonnull align 8 dereferenceable(17) %this1)
  ret ptr %call
}

; Function Attrs: mustprogress nounwind uwtable
define linkonce_odr hidden void @_ZN4llvh7ErrorOrIPvEC2EOS2_(ptr noundef nonnull align 8 dereferenceable(17) %this, ptr noundef nonnull align 8 dereferenceable(17) %Other) unnamed_addr #0 comdat align 2 {
entry:
  %this.addr = alloca ptr, align 8
  %Other.addr = alloca ptr, align 8
  store ptr %this, ptr %this.addr, align 8
  store ptr %Other, ptr %Other.addr, align 8
  %this1 = load ptr, ptr %this.addr, align 8
  %0 = load ptr, ptr %Other.addr, align 8
  call void @_ZN4llvh7ErrorOrIPvE13moveConstructIS1_EEvONS0_IT_EE(ptr noundef nonnull align 8 dereferenceable(17) %this1, ptr noundef nonnull align 8 dereferenceable(17) %0)
  ret void
}

; Function Attrs: mustprogress nounwind uwtable
define linkonce_odr hidden noundef zeroext i1 @_ZNK4llvh7ErrorOrIPvEcvbEv(ptr noundef nonnull align 8 dereferenceable(17) %this) #0 comdat align 2 {
entry:
  %this.addr = alloca ptr, align 8
  store ptr %this, ptr %this.addr, align 8
  %this1 = load ptr, ptr %this.addr, align 8
  %HasError = getelementptr inbounds %"class.llvh::ErrorOr", ptr %this1, i32 0, i32 1
  %bf.load = load i8, ptr %HasError, align 8
  %bf.clear = and i8 %bf.load, 1
  %bf.cast = trunc i8 %bf.clear to i1
  %lnot = xor i1 %bf.cast, true
  ret i1 %lnot
}

; Function Attrs: mustprogress nounwind uwtable
define linkonce_odr hidden noundef i64 @_ZN6hermes2vm14AlignedStorage4sizeEv() #0 comdat align 2 {
entry:
  ret i64 4194304
}

; Function Attrs: mustprogress nounwind uwtable
define internal void @_ZN6hermes2vm12_GLOBAL__N_125VMAllocateStorageProvider14newStorageImplEPKc(ptr noalias sret(%"class.llvh::ErrorOr") align 8 %agg.result, ptr noundef nonnull align 8 dereferenceable(32) %this, ptr noundef %name) unnamed_addr #0 align 2 {
entry:
  %result.ptr = alloca ptr, align 8
  %this.addr = alloca ptr, align 8
  %name.addr = alloca ptr, align 8
  %result = alloca %"class.llvh::ErrorOr", align 8
  %cleanup.dest.slot = alloca i32, align 4
  %mem = alloca ptr, align 8
  store ptr %agg.result, ptr %result.ptr, align 8
  store ptr %this, ptr %this.addr, align 8
  store ptr %name, ptr %name.addr, align 8
  %call = call noundef i64 @_ZN6hermes2vm14AlignedStorage4sizeEv()
  %call2 = call noundef i64 @_ZN6hermes2vm14AlignedStorage4sizeEv()
  %call3 = call noundef ptr @_ZN6hermes2vm12_GLOBAL__N_111getMmapHintEv()
  call void @_ZN6hermes8oscompat19vm_allocate_alignedEmmPv(ptr sret(%"class.llvh::ErrorOr") align 8 %result, i64 noundef %call, i64 noundef %call2, ptr noundef %call3)
  %call4 = call noundef zeroext i1 @_ZNK4llvh7ErrorOrIPvEcvbEv(ptr noundef nonnull align 8 dereferenceable(17) %result)
  br i1 %call4, label %if.end, label %if.then

if.then:                                          ; preds = %entry
  call void @_ZN4llvh7ErrorOrIPvEC2EOS2_(ptr noundef nonnull align 8 dereferenceable(17) %agg.result, ptr noundef nonnull align 8 dereferenceable(17) %result)
  store i32 1, ptr %cleanup.dest.slot, align 4
  br label %cleanup

if.end:                                           ; preds = %entry
  %call5 = call noundef nonnull align 8 dereferenceable(8) ptr @_ZN4llvh7ErrorOrIPvEdeEv(ptr noundef nonnull align 8 dereferenceable(17) %result)
  %0 = load ptr, ptr %call5, align 8
  store ptr %0, ptr %mem, align 8
  %1 = load ptr, ptr %mem, align 8
  %call6 = call noundef i64 @_ZN6hermes2vm14AlignedStorage4sizeEv()
  %2 = load ptr, ptr %name.addr, align 8
  call void @_ZN6hermes8oscompat7vm_nameEPvmPKc(ptr noundef %1, i64 noundef %call6, ptr noundef %2)
  call void @_ZN4llvh7ErrorOrIPvEC2IS1_EEOT_PNSt9enable_ifIXsr3std14is_convertibleIS4_S1_EE5valueEvE4typeE(ptr noundef nonnull align 8 dereferenceable(17) %agg.result, ptr noundef nonnull align 8 dereferenceable(8) %mem, ptr noundef null)
  store i32 1, ptr %cleanup.dest.slot, align 4
  br label %cleanup

cleanup:                                          ; preds = %if.end, %if.then
  call void @_ZN4llvh7ErrorOrIPvED2Ev(ptr noundef nonnull align 8 dereferenceable(17) %result) #11
  ret void
}