; Function Attrs: mustprogress nounwind uwtable
define internal void @_ZN6hermes2vm12_GLOBAL__N_125VMAllocateStorageProvider14newStorageImplEPKc(ptr noalias nocapture sret(%"class.llvh::ErrorOr") align 8 %agg.result, ptr nocapture nonnull readnone align 8 %this, ptr noundef %name) unnamed_addr #3 align 2 {
entry:
  %result = alloca %"class.llvh::ErrorOr", align 8
  %call3 = tail call fastcc noundef ptr @_ZN6hermes2vm12_GLOBAL__N_111getMmapHintEv()
  call void @_ZN6hermes8oscompat19vm_allocate_alignedEmmPv(ptr nonnull sret(%"class.llvh::ErrorOr") align 8 %result, i64 noundef 4194304, i64 noundef 4194304, ptr noundef %call3) #18
  %HasError.i = getelementptr inbounds i8, ptr %result, i64 16
  %bf.load.i = load i8, ptr %HasError.i, align 8
  %0 = and i8 %bf.load.i, 1
  %bf.cast.not.i = icmp eq i8 %0, 0
  br i1 %bf.cast.not.i, label %if.end, label %_ZN4llvh7ErrorOrIPvEC2EOS2_.exit

_ZN4llvh7ErrorOrIPvEC2EOS2_.exit:                 ; preds = %entry
  %HasError2.i.i = getelementptr inbounds i8, ptr %agg.result, i64 16
  %bf.load3.i.i = load i8, ptr %HasError2.i.i, align 8
  %bf.set9.i.i = or i8 %bf.load3.i.i, 1
  store i8 %bf.set9.i.i, ptr %HasError2.i.i, align 8
  %retval.sroa.0.0.copyload.i.i.i = load i32, ptr %result, align 8
  %retval.sroa.31.0.this.sroa_idx.i.i.i = getelementptr inbounds i8, ptr %result, i64 8
  %retval.sroa.31.0.copyload.i.i.i = load ptr, ptr %retval.sroa.31.0.this.sroa_idx.i.i.i, align 8
  store i32 %retval.sroa.0.0.copyload.i.i.i, ptr %agg.result, align 8
  %1 = getelementptr inbounds i8, ptr %agg.result, i64 8
  store ptr %retval.sroa.31.0.copyload.i.i.i, ptr %1, align 8
  br label %cleanup

if.end:                                           ; preds = %entry
  %2 = load ptr, ptr %result, align 8
  call void @_ZN6hermes8oscompat7vm_nameEPvmPKc(ptr noundef %2, i64 noundef 4194304, ptr noundef %name) #18
  %HasError.i1 = getelementptr inbounds i8, ptr %agg.result, i64 16
  %bf.load.i2 = load i8, ptr %HasError.i1, align 8
  %bf.clear.i = and i8 %bf.load.i2, -2
  store i8 %bf.clear.i, ptr %HasError.i1, align 8
  store ptr %2, ptr %agg.result, align 8
  br label %cleanup

cleanup:                                          ; preds = %if.end, %_ZN4llvh7ErrorOrIPvEC2EOS2_.exit
  ret void
}